#include <math.h>
#include <stdio.h>
#include <stdlib.h>
#include <string.h>

main()
{
        int n;
        scanf("%d",&n);
        int h[n];
        for(int i=0;i<n;i++) scanf("%d",&h[i]);
        int m[n];
        for(int i=0;i<n;i++) m[i] = 0;
        for(int i=n-1;i>=0;i--)
        {
                for(int j=i;j<n;j++)
                {
                            if(h[i]>=h[j]&&m[i]-1<m[j]) m[i]=m[j]+1;
                            if(j == n-1&&m[i]==0) m[i] = 1;
                }
        }
        int max = 0;
        for(int i=0;i<n;i++)     if(m[i]>max) max = m[i];
        printf("%d",max);
      
}
