; ModuleID = 'source-C-CXX/9/886.c'
source_filename = "source-C-CXX/9/886.c"
target datalayout = "e-m:e-p270:32:32-p271:32:32-p272:64:64-i64:64-f80:128-n8:16:32:64-S128"
target triple = "x86_64-pc-linux-gnu"

@.str = private unnamed_addr constant [3 x i8] c"%d\00", align 1

; Function Attrs: nofree nounwind sspstrong uwtable
define dso_local i32 @main() local_unnamed_addr #0 {
  %1 = alloca i32, align 4
  %2 = bitcast i32* %1 to i8*
  call void @llvm.lifetime.start.p0i8(i64 4, i8* nonnull %2) #6
  %3 = call i32 (i8*, ...) @__isoc99_scanf(i8* getelementptr inbounds ([3 x i8], [3 x i8]* @.str, i64 0, i64 0), i32* nonnull %1)
  %4 = load i32, i32* %1, align 4, !tbaa !5
  %5 = zext i32 %4 to i64
  %6 = call i8* @llvm.stacksave()
  %7 = alloca i32, i64 %5, align 16
  %8 = load i32, i32* %1, align 4, !tbaa !5
  %9 = icmp sgt i32 %8, 0
  br i1 %9, label %14, label %130

10:                                               ; preds = %14
  %11 = zext i32 %19 to i64
  %12 = alloca i32, i64 %11, align 16
  %13 = icmp sgt i32 %19, 0
  br i1 %13, label %22, label %130

14:                                               ; preds = %0, %14
  %15 = phi i64 [ %18, %14 ], [ 0, %0 ]
  %16 = getelementptr inbounds i32, i32* %7, i64 %15
  %17 = call i32 (i8*, ...) @__isoc99_scanf(i8* getelementptr inbounds ([3 x i8], [3 x i8]* @.str, i64 0, i64 0), i32* nonnull %16)
  %18 = add nuw nsw i64 %15, 1
  %19 = load i32, i32* %1, align 4, !tbaa !5
  %20 = sext i32 %19 to i64
  %21 = icmp slt i64 %18, %20
  br i1 %21, label %14, label %10, !llvm.loop !9

22:                                               ; preds = %10
  %23 = bitcast i32* %12 to i8*
  %24 = shl nuw nsw i64 %11, 2
  call void @llvm.memset.p0i8.i64(i8* nonnull align 16 %23, i8 0, i64 %24, i1 false)
  %25 = add nsw i32 %19, -1
  %26 = zext i32 %19 to i64
  %27 = sext i32 %25 to i64
  br label %30

28:                                               ; preds = %127, %30
  %29 = icmp sgt i64 %31, 1
  br i1 %29, label %30, label %40, !llvm.loop !11

30:                                               ; preds = %22, %28
  %31 = phi i64 [ %26, %22 ], [ %34, %28 ]
  %32 = phi i64 [ %26, %22 ], [ %33, %28 ]
  %33 = add nsw i64 %32, -1
  %34 = add nsw i64 %31, -1
  %35 = getelementptr inbounds i32, i32* %12, i64 %34
  %36 = icmp sgt i64 %31, %26
  br i1 %36, label %28, label %37

37:                                               ; preds = %30
  %38 = getelementptr inbounds i32, i32* %7, i64 %34
  %39 = load i32, i32* %38, align 4, !tbaa !5
  br label %109

40:                                               ; preds = %28
  br i1 %13, label %41, label %130

41:                                               ; preds = %40
  %42 = icmp ult i32 %19, 8
  br i1 %42, label %106, label %43

43:                                               ; preds = %41
  %44 = and i64 %26, 4294967288
  %45 = add nsw i64 %44, -8
  %46 = lshr exact i64 %45, 3
  %47 = add nuw nsw i64 %46, 1
  %48 = and i64 %47, 1
  %49 = icmp eq i64 %45, 0
  br i1 %49, label %81, label %50

50:                                               ; preds = %43
  %51 = and i64 %47, 4611686018427387902
  br label %52

52:                                               ; preds = %52, %50
  %53 = phi i64 [ 0, %50 ], [ %78, %52 ]
  %54 = phi <4 x i32> [ zeroinitializer, %50 ], [ %76, %52 ]
  %55 = phi <4 x i32> [ zeroinitializer, %50 ], [ %77, %52 ]
  %56 = phi i64 [ %51, %50 ], [ %79, %52 ]
  %57 = getelementptr inbounds i32, i32* %12, i64 %53
  %58 = bitcast i32* %57 to <4 x i32>*
  %59 = load <4 x i32>, <4 x i32>* %58, align 16, !tbaa !5
  %60 = getelementptr inbounds i32, i32* %57, i64 4
  %61 = bitcast i32* %60 to <4 x i32>*
  %62 = load <4 x i32>, <4 x i32>* %61, align 16, !tbaa !5
  %63 = icmp sgt <4 x i32> %59, %54
  %64 = icmp sgt <4 x i32> %62, %55
  %65 = select <4 x i1> %63, <4 x i32> %59, <4 x i32> %54
  %66 = select <4 x i1> %64, <4 x i32> %62, <4 x i32> %55
  %67 = or i64 %53, 8
  %68 = getelementptr inbounds i32, i32* %12, i64 %67
  %69 = bitcast i32* %68 to <4 x i32>*
  %70 = load <4 x i32>, <4 x i32>* %69, align 16, !tbaa !5
  %71 = getelementptr inbounds i32, i32* %68, i64 4
  %72 = bitcast i32* %71 to <4 x i32>*
  %73 = load <4 x i32>, <4 x i32>* %72, align 16, !tbaa !5
  %74 = icmp sgt <4 x i32> %70, %65
  %75 = icmp sgt <4 x i32> %73, %66
  %76 = select <4 x i1> %74, <4 x i32> %70, <4 x i32> %65
  %77 = select <4 x i1> %75, <4 x i32> %73, <4 x i32> %66
  %78 = add nuw i64 %53, 16
  %79 = add i64 %56, -2
  %80 = icmp eq i64 %79, 0
  br i1 %80, label %81, label %52, !llvm.loop !12

81:                                               ; preds = %52, %43
  %82 = phi <4 x i32> [ undef, %43 ], [ %76, %52 ]
  %83 = phi <4 x i32> [ undef, %43 ], [ %77, %52 ]
  %84 = phi i64 [ 0, %43 ], [ %78, %52 ]
  %85 = phi <4 x i32> [ zeroinitializer, %43 ], [ %76, %52 ]
  %86 = phi <4 x i32> [ zeroinitializer, %43 ], [ %77, %52 ]
  %87 = icmp eq i64 %48, 0
  br i1 %87, label %99, label %88

88:                                               ; preds = %81
  %89 = getelementptr inbounds i32, i32* %12, i64 %84
  %90 = bitcast i32* %89 to <4 x i32>*
  %91 = load <4 x i32>, <4 x i32>* %90, align 16, !tbaa !5
  %92 = getelementptr inbounds i32, i32* %89, i64 4
  %93 = bitcast i32* %92 to <4 x i32>*
  %94 = load <4 x i32>, <4 x i32>* %93, align 16, !tbaa !5
  %95 = icmp sgt <4 x i32> %94, %86
  %96 = select <4 x i1> %95, <4 x i32> %94, <4 x i32> %86
  %97 = icmp sgt <4 x i32> %91, %85
  %98 = select <4 x i1> %97, <4 x i32> %91, <4 x i32> %85
  br label %99

99:                                               ; preds = %81, %88
  %100 = phi <4 x i32> [ %82, %81 ], [ %98, %88 ]
  %101 = phi <4 x i32> [ %83, %81 ], [ %96, %88 ]
  %102 = icmp sgt <4 x i32> %100, %101
  %103 = select <4 x i1> %102, <4 x i32> %100, <4 x i32> %101
  %104 = call i32 @llvm.vector.reduce.smax.v4i32(<4 x i32> %103)
  %105 = icmp eq i64 %44, %26
  br i1 %105, label %130, label %106

106:                                              ; preds = %41, %99
  %107 = phi i64 [ 0, %41 ], [ %44, %99 ]
  %108 = phi i32 [ 0, %41 ], [ %104, %99 ]
  br label %133

109:                                              ; preds = %37, %127
  %110 = phi i64 [ %33, %37 ], [ %128, %127 ]
  %111 = getelementptr inbounds i32, i32* %7, i64 %110
  %112 = load i32, i32* %111, align 4, !tbaa !5
  %113 = icmp slt i32 %39, %112
  br i1 %113, label %121, label %114

114:                                              ; preds = %109
  %115 = load i32, i32* %35, align 4, !tbaa !5
  %116 = getelementptr inbounds i32, i32* %12, i64 %110
  %117 = load i32, i32* %116, align 4, !tbaa !5
  %118 = icmp sgt i32 %115, %117
  br i1 %118, label %121, label %119

119:                                              ; preds = %114
  %120 = add nsw i32 %117, 1
  store i32 %120, i32* %35, align 4, !tbaa !5
  br label %121

121:                                              ; preds = %119, %114, %109
  %122 = icmp eq i64 %110, %27
  br i1 %122, label %123, label %127

123:                                              ; preds = %121
  %124 = load i32, i32* %35, align 4, !tbaa !5
  %125 = icmp eq i32 %124, 0
  br i1 %125, label %126, label %127

126:                                              ; preds = %123
  store i32 1, i32* %35, align 4, !tbaa !5
  br label %127

127:                                              ; preds = %121, %123, %126
  %128 = add nsw i64 %110, 1
  %129 = icmp eq i64 %128, %26
  br i1 %129, label %28, label %109, !llvm.loop !14

130:                                              ; preds = %133, %99, %0, %10, %40
  %131 = phi i32 [ 0, %40 ], [ 0, %10 ], [ 0, %0 ], [ %104, %99 ], [ %139, %133 ]
  %132 = call i32 (i8*, ...) @printf(i8* nonnull dereferenceable(1) getelementptr inbounds ([3 x i8], [3 x i8]* @.str, i64 0, i64 0), i32 %131)
  call void @llvm.stackrestore(i8* %6)
  call void @llvm.lifetime.end.p0i8(i64 4, i8* nonnull %2) #6
  ret i32 0

133:                                              ; preds = %106, %133
  %134 = phi i64 [ %140, %133 ], [ %107, %106 ]
  %135 = phi i32 [ %139, %133 ], [ %108, %106 ]
  %136 = getelementptr inbounds i32, i32* %12, i64 %134
  %137 = load i32, i32* %136, align 4, !tbaa !5
  %138 = icmp sgt i32 %137, %135
  %139 = select i1 %138, i32 %137, i32 %135
  %140 = add nuw nsw i64 %134, 1
  %141 = icmp eq i64 %140, %11
  br i1 %141, label %130, label %133, !llvm.loop !15
}

; Function Attrs: argmemonly mustprogress nofree nosync nounwind willreturn
declare void @llvm.lifetime.start.p0i8(i64 immarg, i8* nocapture) #1

; Function Attrs: nofree nounwind
declare noundef i32 @__isoc99_scanf(i8* nocapture noundef readonly, ...) local_unnamed_addr #2

; Function Attrs: mustprogress nofree nosync nounwind willreturn
declare i8* @llvm.stacksave() #3

; Function Attrs: argmemonly mustprogress nofree nosync nounwind willreturn
declare void @llvm.lifetime.end.p0i8(i64 immarg, i8* nocapture) #1

; Function Attrs: nofree nounwind
declare noundef i32 @printf(i8* nocapture noundef readonly, ...) local_unnamed_addr #2

; Function Attrs: mustprogress nofree nosync nounwind willreturn
declare void @llvm.stackrestore(i8*) #3

; Function Attrs: argmemonly nofree nounwind willreturn writeonly
declare void @llvm.memset.p0i8.i64(i8* nocapture writeonly, i8, i64, i1 immarg) #4

; Function Attrs: nofree nosync nounwind readnone willreturn
declare i32 @llvm.vector.reduce.smax.v4i32(<4 x i32>) #5


!llvm.module.flags = !{!0, !1, !2, !3}
!llvm.ident = !{!4}

!0 = !{i32 1, !"wchar_size", i32 4}
!1 = !{i32 7, !"PIC Level", i32 2}
!2 = !{i32 7, !"PIE Level", i32 2}
!3 = !{i32 7, !"uwtable", i32 1}
!4 = !{!"clang version 13.0.0"}
!5 = !{!6, !6, i64 0}
!6 = !{!"int", !7, i64 0}
!7 = !{!"omnipotent char", !8, i64 0}
!8 = !{!"Simple C/C++ TBAA"}
!9 = distinct !{!9, !10}
!10 = !{!"llvm.loop.mustprogress"}
!11 = distinct !{!11, !10}
!12 = distinct !{!12, !10, !13}
!13 = !{!"llvm.loop.isvectorized", i32 1}
!14 = distinct !{!14, !10}
!15 = distinct !{!15, !10, !16, !13}
!16 = !{!"llvm.loop.unroll.runtime.disable"}
